(dp1
S''
I-1
sS'\x83'
I82
sS'\x04'
I161
sS'\x87'
I72
sS'\x8b'
I54
sS'\x8f'
I84
sS'\x93'
I103
sS'\x97'
I96
sS'\x18'
I159
sS'\x9b'
I113
sS'\x9f'
I70
sS' '
I-1
sS'\xa3'
I79
sS'$'
I133
sS'\xa7'
I41
sS'\xab'
I90
sS'\xaf'
I94
sS'0'
I112
sS'\xb3'
I68
sS'4'
I126
sS'\xb7'
I55
sS'8'
I37
sS'\xbb'
I97
sS'<'
I127
sS'\xbf'
I77
sS'@'
I140
sS'\xc3'
I47
sS'\xcb'
I156
sS'\xcf'
I144
sS'\xd7'
I147
sS'\xdb'
I149
sS'\\'
I148
sS'`'
I101
sS'\xe3'
I80
sS'd'
I21
sS'\xe7'
I45
sS'h'
I14
sS'\xeb'
I142
sS'l'
I9
sS'\xef'
I88
sS'p'
I13
sS't'
I11
sS'x'
I26
sS'|'
I66
sS'\x80'
I78
sS'\x84'
I42
sS'\x07'
I165
sS'\x88'
I39
sS'\x8c'
I89
sS'\x0f'
I163
sS'\x90'
I95
sS'\x13'
I162
sS'\x94'
I63
sS'\x17'
I166
sS'\x98'
I40
sS'\x9c'
I49
sS'\xa0'
I32
sS'#'
I137
sS'\xa4'
I102
sS"'"
I53
sS'\xa8'
I106
sS'+'
I139
sS'\xac'
I125
sS'/'
I28
sS'\xb0'
I118
sS'3'
I29
sS'\xb4'
I61
sS'7'
I122
sS'\xb8'
I105
sS';'
I132
sS'\xbc'
I31
sS'?'
I34
sS'\xc4'
I91
sS'\xc8'
I167
sS'\xcc'
I169
sS'\xd0'
I145
sS'\xd8'
I135
sS'_'
I73
sS'\xe0'
I129
sS'c'
I8
sS'\xe4'
I69
sS'g'
I17
sS'\xe8'
I51
sS'k'
I20
sS'\xec'
I38
sS'o'
I12
sS's'
I5
sS'w'
I22
sS'{'
I109
sS'\x7f'
I155
sS'\x81'
I134
sS'\x02'
I157
sS'\x85'
I60
sS'\x89'
I108
sS'\x8d'
I100
sS'\x91'
I115
sS'\x95'
I117
sS'\x16'
I160
sS'\x99'
I71
sS'\x9d'
I44
sS'\xa1'
I48
sS'\xa5'
I99
sS'&'
I59
sS'\xa9'
I56
sS'*'
I76
sS'\xad'
I75
sS'.'
I7
sS'\xb1'
I50
sS'2'
I86
sS'\xb5'
I107
sS'6'
I36
sS'\xb9'
I58
sS':'
I138
sS'\xbd'
I85
sS'>'
I128
sS'\xc5'
I87
sS'\xd1'
I146
sS'\xd9'
I136
sS'^'
I154
sS'\xe1'
I151
sS'b'
I24
sS'\xe5'
I30
sS'f'
I25
sS'\xe9'
I33
sS'j'
I1
sS'\xed'
I124
sS'n'
I15
sS'r'
I6
sS'v'
I18
sS'z'
I23
sS'~'
I131
sS'\x82'
I81
sS'\x86'
I123
sS'\x8a'
I121
sS'\x8e'
I46
sS'\x92'
I65
sS'\x96'
I92
sS'\x19'
I164
sS'\x9a'
I119
sS'\x9e'
I116
sS'!'
I130
sS'\xa2'
I104
sS'%'
I158
sS'\xa6'
I120
sS'\xaa'
I93
sS'\xae'
I83
sS'1'
I35
sS'\xb2'
I64
sS'5'
I110
sS'\xb6'
I98
sS'9'
I114
sS'\xba'
I57
sS'='
I141
sS'\xbe'
I52
sS'\xc2'
I74
sS'\xc6'
I152
sS'\xca'
I153
sS'\xce'
I143
sS'\xda'
I150
sS'a'
I2
sS'\xe2'
I62
sS'e'
I4
sS'\xe6'
I43
sS'i'
I10
sS'\xea'
I67
sS'm'
I3
sS'\xee'
I168
sS'q'
I27
sS'u'
I19
sS'y'
I16
sS'}'
I111
s.